; Function Attrs: nounwind uwtable
define range(i32 0, 2) i32 @ossl_quic_lcidm_debug_remove(ptr noundef readonly captures(none) %0, ptr noundef readonly captures(none) %1) local_unnamed_addr #0 {
  %3 = alloca %struct.quic_lcid_st, align 8
  call void @llvm.lifetime.start.p0(i64 48, ptr nonnull %3) #11
  call void @llvm.memcpy.p0.p0.i64(ptr noundef nonnull align 8 dereferenceable(21) %3, ptr noundef nonnull align 1 dereferenceable(21) %1, i64 21, i1 false), !tbaa.struct !29
  %4 = getelementptr inbounds nuw i8, ptr %0, i64 8
  %5 = load ptr, ptr %4, align 8, !tbaa !3
  %6 = call ptr @OPENSSL_LH_retrieve(ptr noundef %5, ptr noundef nonnull %3) #11
  %7 = icmp eq ptr %6, null
  br i1 %7, label %18, label %8

8:                                                ; preds = %2
  %.val = load ptr, ptr %4, align 8, !tbaa !3
  %9 = call ptr @OPENSSL_LH_delete(ptr noundef %.val, ptr noundef nonnull %6) #11
  %10 = getelementptr inbounds nuw i8, ptr %6, i64 32
  %11 = load ptr, ptr %10, align 8, !tbaa !32
  %12 = getelementptr inbounds nuw i8, ptr %11, i64 8
  %13 = load ptr, ptr %12, align 8, !tbaa !27
  %14 = call ptr @OPENSSL_LH_delete(ptr noundef %13, ptr noundef nonnull %6) #11
  %15 = load ptr, ptr %10, align 8, !tbaa !32
  %16 = load i64, ptr %15, align 8, !tbaa !28
  %17 = add i64 %16, -1
  store i64 %17, ptr %15, align 8, !tbaa !28
  call void @CRYPTO_free(ptr noundef nonnull %6, ptr noundef nonnull @.str, i32 noundef 221) #11
  br label %18

18:                                               ; preds = %2, %8
  %.0 = phi i32 [ 1, %8 ], [ 0, %2 ]
  call void @llvm.lifetime.end.p0(i64 48, ptr nonnull %3) #11
  ret i32 %.0
}